target datalayout = "e-m:e-p270:32:32-p271:32:32-p272:64:64-i64:64-i128:128-f80:128-n8:16:32:64-S128"
target triple = "x86_64-pc-linux-gnu"

%"class.icu_77::LocDataParser" = type { ptr, ptr, ptr, i16, ptr, ptr }

@_ZN6icu_77L15DQUOTE_STOPLISTE = internal constant [2 x i16] [i16 34, i16 0], align 2
@_ZN6icu_77L15SQUOTE_STOPLISTE = internal constant [2 x i16] [i16 39, i16 0], align 2
@_ZN6icu_77L16NOQUOTE_STOPLISTE = internal constant [7 x i16] [i16 32, i16 44, i16 62, i16 60, i16 39, i16 34, i16 0], align 2

; Function Attrs: inlinehint mustprogress uwtable
define linkonce_odr noundef signext i8 @_ZNK6icu_7713LocDataParser6inListEDsPKDs(ptr noundef nonnull align 8 dereferenceable(48) %0, i16 noundef zeroext %1, ptr noundef %2) #6 comdat align 2 {
  %4 = alloca i8, align 1
  %5 = alloca ptr, align 8
  %6 = alloca i16, align 2
  %7 = alloca ptr, align 8
  store ptr %0, ptr %5, align 8, !tbaa !22
  store i16 %1, ptr %6, align 2, !tbaa !34
  store ptr %2, ptr %7, align 8, !tbaa !16
  %8 = load ptr, ptr %7, align 8, !tbaa !16
  %9 = load i16, ptr %8, align 2, !tbaa !34
  %10 = zext i16 %9 to i32
  %11 = icmp eq i32 %10, 32
  br i1 %11, label %12, label %18

12:                                               ; preds = %3
  %13 = load i16, ptr %6, align 2, !tbaa !34
  %14 = zext i16 %13 to i32
  %15 = call noundef signext i8 @_ZN6icu_7712PatternProps12isWhiteSpaceEi(i32 noundef %14)
  %16 = icmp ne i8 %15, 0
  br i1 %16, label %17, label %18

17:                                               ; preds = %12
  store i8 1, ptr %4, align 1
  br label %43

18:                                               ; preds = %12, %3
  br label %19

19:                                               ; preds = %32, %18
  %20 = load ptr, ptr %7, align 8, !tbaa !16
  %21 = load i16, ptr %20, align 2, !tbaa !34
  %22 = icmp ne i16 %21, 0
  br i1 %22, label %23, label %30

23:                                               ; preds = %19
  %24 = load ptr, ptr %7, align 8, !tbaa !16
  %25 = load i16, ptr %24, align 2, !tbaa !34
  %26 = zext i16 %25 to i32
  %27 = load i16, ptr %6, align 2, !tbaa !34
  %28 = zext i16 %27 to i32
  %29 = icmp ne i32 %26, %28
  br label %30

30:                                               ; preds = %23, %19
  %31 = phi i1 [ false, %19 ], [ %29, %23 ]
  br i1 %31, label %32, label %35

32:                                               ; preds = %30
  %33 = load ptr, ptr %7, align 8, !tbaa !16
  %34 = getelementptr inbounds nuw i16, ptr %33, i32 1
  store ptr %34, ptr %7, align 8, !tbaa !16
  br label %19, !llvm.loop !75

35:                                               ; preds = %30
  %36 = load ptr, ptr %7, align 8, !tbaa !16
  %37 = load i16, ptr %36, align 2, !tbaa !34
  %38 = zext i16 %37 to i32
  %39 = load i16, ptr %6, align 2, !tbaa !34
  %40 = zext i16 %39 to i32
  %41 = icmp eq i32 %38, %40
  %42 = zext i1 %41 to i8
  store i8 %42, ptr %4, align 1
  br label %43

43:                                               ; preds = %35, %17
  %44 = load i8, ptr %4, align 1
  ret i8 %44
}

; Function Attrs: inlinehint mustprogress nounwind uwtable
define linkonce_odr void @_ZN6icu_7713LocDataParser3incEv(ptr noundef nonnull align 8 dereferenceable(48) %0) #4 comdat align 2 {
  %2 = alloca ptr, align 8
  store ptr %0, ptr %2, align 8, !tbaa !22
  %3 = load ptr, ptr %2, align 8
  %4 = getelementptr inbounds nuw %"class.icu_77::LocDataParser", ptr %3, i32 0, i32 2
  %5 = load ptr, ptr %4, align 8, !tbaa !37
  %6 = getelementptr inbounds nuw i16, ptr %5, i32 1
  store ptr %6, ptr %4, align 8, !tbaa !37
  %7 = getelementptr inbounds nuw %"class.icu_77::LocDataParser", ptr %3, i32 0, i32 3
  store i16 -1, ptr %7, align 8, !tbaa !38
  ret void
}

; Function Attrs: inlinehint mustprogress uwtable
define linkonce_odr void @_ZN6icu_7713LocDataParser14skipWhitespaceEv(ptr noundef nonnull align 8 dereferenceable(48) %0) #6 comdat align 2 {
  %2 = alloca ptr, align 8
  store ptr %0, ptr %2, align 8, !tbaa !22
  %3 = load ptr, ptr %2, align 8
  br label %4

4:                                                ; preds = %29, %1
  %5 = getelementptr inbounds nuw %"class.icu_77::LocDataParser", ptr %3, i32 0, i32 2
  %6 = load ptr, ptr %5, align 8, !tbaa !37
  %7 = getelementptr inbounds nuw %"class.icu_77::LocDataParser", ptr %3, i32 0, i32 1
  %8 = load ptr, ptr %7, align 8, !tbaa !36
  %9 = icmp ult ptr %6, %8
  br i1 %9, label %10, label %27

10:                                               ; preds = %4
  %11 = getelementptr inbounds nuw %"class.icu_77::LocDataParser", ptr %3, i32 0, i32 3
  %12 = load i16, ptr %11, align 8, !tbaa !38
  %13 = zext i16 %12 to i32
  %14 = icmp ne i32 %13, 65535
  br i1 %14, label %15, label %18

15:                                               ; preds = %10
  %16 = getelementptr inbounds nuw %"class.icu_77::LocDataParser", ptr %3, i32 0, i32 3
  %17 = load i16, ptr %16, align 8, !tbaa !38
  br label %22

18:                                               ; preds = %10
  %19 = getelementptr inbounds nuw %"class.icu_77::LocDataParser", ptr %3, i32 0, i32 2
  %20 = load ptr, ptr %19, align 8, !tbaa !37
  %21 = load i16, ptr %20, align 2, !tbaa !34
  br label %22

22:                                               ; preds = %18, %15
  %23 = phi i16 [ %17, %15 ], [ %21, %18 ]
  %24 = zext i16 %23 to i32
  %25 = call noundef signext i8 @_ZN6icu_7712PatternProps12isWhiteSpaceEi(i32 noundef %24)
  %26 = icmp ne i8 %25, 0
  br label %27

27:                                               ; preds = %22, %4
  %28 = phi i1 [ false, %4 ], [ %26, %22 ]
  br i1 %28, label %29, label %30

29:                                               ; preds = %27
  call void @_ZN6icu_7713LocDataParser3incEv(ptr noundef nonnull align 8 dereferenceable(48) %3)
  br label %4, !llvm.loop !47

30:                                               ; preds = %27
  ret void
}

; Function Attrs: mustprogress uwtable
define noundef ptr @_ZN6icu_7713LocDataParser10nextStringEv(ptr noundef nonnull align 8 dereferenceable(48) %0) #2 align 2 {
  %2 = alloca ptr, align 8
  %3 = alloca ptr, align 8
  %4 = alloca ptr, align 8
  %5 = alloca ptr, align 8
  %6 = alloca i16, align 2
  %7 = alloca i8, align 1
  %8 = alloca ptr, align 8
  %9 = alloca i32, align 4
  %10 = alloca i16, align 2
  store ptr %0, ptr %3, align 8, !tbaa !22
  %11 = load ptr, ptr %3, align 8
  call void @llvm.lifetime.start.p0(i64 8, ptr %4) #14
  store ptr null, ptr %4, align 8, !tbaa !16
  call void @_ZN6icu_7713LocDataParser14skipWhitespaceEv(ptr noundef nonnull align 8 dereferenceable(48) %11)
  %12 = getelementptr inbounds nuw %"class.icu_77::LocDataParser", ptr %11, i32 0, i32 2
  %13 = load ptr, ptr %12, align 8, !tbaa !37
  %14 = getelementptr inbounds nuw %"class.icu_77::LocDataParser", ptr %11, i32 0, i32 1
  %15 = load ptr, ptr %14, align 8, !tbaa !36
  %16 = icmp ult ptr %13, %15
  br i1 %16, label %17, label %136

17:                                               ; preds = %1
  call void @llvm.lifetime.start.p0(i64 8, ptr %5) #14
  call void @llvm.lifetime.start.p0(i64 2, ptr %6) #14
  %18 = getelementptr inbounds nuw %"class.icu_77::LocDataParser", ptr %11, i32 0, i32 2
  %19 = load ptr, ptr %18, align 8, !tbaa !37
  %20 = load i16, ptr %19, align 2, !tbaa !34
  store i16 %20, ptr %6, align 2, !tbaa !34
  call void @llvm.lifetime.start.p0(i64 1, ptr %7) #14
  %21 = load i16, ptr %6, align 2, !tbaa !34
  %22 = zext i16 %21 to i32
  %23 = icmp eq i32 %22, 34
  br i1 %23, label %28, label %24

24:                                               ; preds = %17
  %25 = load i16, ptr %6, align 2, !tbaa !34
  %26 = zext i16 %25 to i32
  %27 = icmp eq i32 %26, 39
  br label %28

28:                                               ; preds = %24, %17
  %29 = phi i1 [ true, %17 ], [ %27, %24 ]
  %30 = zext i1 %29 to i8
  store i8 %30, ptr %7, align 1, !tbaa !39
  %31 = load i8, ptr %7, align 1, !tbaa !39
  %32 = icmp ne i8 %31, 0
  br i1 %32, label %33, label %42

33:                                               ; preds = %28
  call void @_ZN6icu_7713LocDataParser3incEv(ptr noundef nonnull align 8 dereferenceable(48) %11)
  %34 = load i16, ptr %6, align 2, !tbaa !34
  %35 = zext i16 %34 to i32
  %36 = icmp eq i32 %35, 34
  br i1 %36, label %37, label %38

37:                                               ; preds = %33
  br label %39

38:                                               ; preds = %33
  br label %39

39:                                               ; preds = %38, %37
  %40 = phi ptr [ @_ZN6icu_77L15DQUOTE_STOPLISTE, %37 ], [ @_ZN6icu_77L15SQUOTE_STOPLISTE, %38 ]
  %41 = getelementptr inbounds [2 x i16], ptr %40, i64 0, i64 0
  store ptr %41, ptr %5, align 8, !tbaa !16
  br label %43

42:                                               ; preds = %28
  store ptr @_ZN6icu_77L16NOQUOTE_STOPLISTE, ptr %5, align 8, !tbaa !16
  br label %43

43:                                               ; preds = %42, %39
  call void @llvm.lifetime.start.p0(i64 8, ptr %8) #14
  %44 = getelementptr inbounds nuw %"class.icu_77::LocDataParser", ptr %11, i32 0, i32 2
  %45 = load ptr, ptr %44, align 8, !tbaa !37
  store ptr %45, ptr %8, align 8, !tbaa !16
  br label %46

46:                                               ; preds = %62, %43
  %47 = getelementptr inbounds nuw %"class.icu_77::LocDataParser", ptr %11, i32 0, i32 2
  %48 = load ptr, ptr %47, align 8, !tbaa !37
  %49 = getelementptr inbounds nuw %"class.icu_77::LocDataParser", ptr %11, i32 0, i32 1
  %50 = load ptr, ptr %49, align 8, !tbaa !36
  %51 = icmp ult ptr %48, %50
  br i1 %51, label %52, label %60

52:                                               ; preds = %46
  %53 = getelementptr inbounds nuw %"class.icu_77::LocDataParser", ptr %11, i32 0, i32 2
  %54 = load ptr, ptr %53, align 8, !tbaa !37
  %55 = load i16, ptr %54, align 2, !tbaa !34
  %56 = load ptr, ptr %5, align 8, !tbaa !16
  %57 = call noundef signext i8 @_ZNK6icu_7713LocDataParser6inListEDsPKDs(ptr noundef nonnull align 8 dereferenceable(48) %11, i16 noundef zeroext %55, ptr noundef %56)
  %58 = icmp ne i8 %57, 0
  %59 = xor i1 %58, true
  br label %60

60:                                               ; preds = %52, %46
  %61 = phi i1 [ false, %46 ], [ %59, %52 ]
  br i1 %61, label %62, label %66

62:                                               ; preds = %60
  %63 = getelementptr inbounds nuw %"class.icu_77::LocDataParser", ptr %11, i32 0, i32 2
  %64 = load ptr, ptr %63, align 8, !tbaa !37
  %65 = getelementptr inbounds nuw i16, ptr %64, i32 1
  store ptr %65, ptr %63, align 8, !tbaa !37
  br label %46, !llvm.loop !74

66:                                               ; preds = %60
  %67 = getelementptr inbounds nuw %"class.icu_77::LocDataParser", ptr %11, i32 0, i32 2
  %68 = load ptr, ptr %67, align 8, !tbaa !37
  %69 = getelementptr inbounds nuw %"class.icu_77::LocDataParser", ptr %11, i32 0, i32 1
  %70 = load ptr, ptr %69, align 8, !tbaa !36
  %71 = icmp eq ptr %68, %70
  br i1 %71, label %72, label %76

72:                                               ; preds = %66
  br label %73

73:                                               ; preds = %72
  call void @_ZN6icu_7713LocDataParser10parseErrorEPKc(ptr noundef nonnull align 8 dereferenceable(48) %11, ptr noundef null)
  store ptr null, ptr %2, align 8
  store i32 1, ptr %9, align 4
  br label %133

74:                                               ; No predecessors!
  br label %75

75:                                               ; preds = %74
  br label %76

76:                                               ; preds = %75, %66
  call void @llvm.lifetime.start.p0(i64 2, ptr %10) #14
  %77 = getelementptr inbounds nuw %"class.icu_77::LocDataParser", ptr %11, i32 0, i32 2
  %78 = load ptr, ptr %77, align 8, !tbaa !37
  %79 = load i16, ptr %78, align 2, !tbaa !34
  store i16 %79, ptr %10, align 2, !tbaa !34
  %80 = getelementptr inbounds nuw %"class.icu_77::LocDataParser", ptr %11, i32 0, i32 2
  %81 = load ptr, ptr %80, align 8, !tbaa !37
  %82 = load ptr, ptr %8, align 8, !tbaa !16
  %83 = icmp ugt ptr %81, %82
  br i1 %83, label %84, label %90

84:                                               ; preds = %76
  %85 = load i16, ptr %10, align 2, !tbaa !34
  %86 = getelementptr inbounds nuw %"class.icu_77::LocDataParser", ptr %11, i32 0, i32 3
  store i16 %85, ptr %86, align 8, !tbaa !38
  %87 = getelementptr inbounds nuw %"class.icu_77::LocDataParser", ptr %11, i32 0, i32 2
  %88 = load ptr, ptr %87, align 8, !tbaa !37
  store i16 0, ptr %88, align 2, !tbaa !34
  %89 = load ptr, ptr %8, align 8, !tbaa !16
  store ptr %89, ptr %4, align 8, !tbaa !16
  br label %90

90:                                               ; preds = %84, %76
  %91 = load i8, ptr %7, align 1, !tbaa !39
  %92 = icmp ne i8 %91, 0
  br i1 %92, label %93, label %114

93:                                               ; preds = %90
  %94 = load i16, ptr %10, align 2, !tbaa !34
  %95 = zext i16 %94 to i32
  %96 = load i16, ptr %6, align 2, !tbaa !34
  %97 = zext i16 %96 to i32
  %98 = icmp ne i32 %95, %97
  br i1 %98, label %99, label %103

99:                                               ; preds = %93
  br label %100

100:                                              ; preds = %99
  call void @_ZN6icu_7713LocDataParser10parseErrorEPKc(ptr noundef nonnull align 8 dereferenceable(48) %11, ptr noundef null)
  store ptr null, ptr %2, align 8
  store i32 1, ptr %9, align 4
  br label %132

101:                                              ; No predecessors!
  br label %102

102:                                              ; preds = %101
  br label %113

103:                                              ; preds = %93
  %104 = getelementptr inbounds nuw %"class.icu_77::LocDataParser", ptr %11, i32 0, i32 2
  %105 = load ptr, ptr %104, align 8, !tbaa !37
  %106 = load ptr, ptr %8, align 8, !tbaa !16
  %107 = icmp eq ptr %105, %106
  br i1 %107, label %108, label %112

108:                                              ; preds = %103
  br label %109

109:                                              ; preds = %108
  call void @_ZN6icu_7713LocDataParser10parseErrorEPKc(ptr noundef nonnull align 8 dereferenceable(48) %11, ptr noundef null)
  store ptr null, ptr %2, align 8
  store i32 1, ptr %9, align 4
  br label %132

110:                                              ; No predecessors!
  br label %111

111:                                              ; preds = %110
  br label %112

112:                                              ; preds = %111, %103
  br label %113

113:                                              ; preds = %112, %102
  call void @_ZN6icu_7713LocDataParser3incEv(ptr noundef nonnull align 8 dereferenceable(48) %11)
  br label %131

114:                                              ; preds = %90
  %115 = load i16, ptr %10, align 2, !tbaa !34
  %116 = zext i16 %115 to i32
  %117 = icmp eq i32 %116, 60
  br i1 %117, label %126, label %118

118:                                              ; preds = %114
  %119 = load i16, ptr %10, align 2, !tbaa !34
  %120 = zext i16 %119 to i32
  %121 = icmp eq i32 %120, 39
  br i1 %121, label %126, label %122

122:                                              ; preds = %118
  %123 = load i16, ptr %10, align 2, !tbaa !34
  %124 = zext i16 %123 to i32
  %125 = icmp eq i32 %124, 34
  br i1 %125, label %126, label %130

126:                                              ; preds = %122, %118, %114
  br label %127

127:                                              ; preds = %126
  call void @_ZN6icu_7713LocDataParser10parseErrorEPKc(ptr noundef nonnull align 8 dereferenceable(48) %11, ptr noundef null)
  store ptr null, ptr %2, align 8
  store i32 1, ptr %9, align 4
  br label %132

128:                                              ; No predecessors!
  br label %129

129:                                              ; preds = %128
  br label %130

130:                                              ; preds = %129, %122
  br label %131

131:                                              ; preds = %130, %113
  store i32 0, ptr %9, align 4
  br label %132

132:                                              ; preds = %131, %127, %109, %100
  call void @llvm.lifetime.end.p0(i64 2, ptr %10) #14
  br label %133

133:                                              ; preds = %132, %73
  call void @llvm.lifetime.end.p0(i64 8, ptr %8) #14
  call void @llvm.lifetime.end.p0(i64 1, ptr %7) #14
  call void @llvm.lifetime.end.p0(i64 2, ptr %6) #14
  call void @llvm.lifetime.end.p0(i64 8, ptr %5) #14
  %134 = load i32, ptr %9, align 4
  switch i32 %134, label %138 [
    i32 0, label %135
  ]

135:                                              ; preds = %133
  br label %136

136:                                              ; preds = %135, %1
  %137 = load ptr, ptr %4, align 8, !tbaa !16
  store ptr %137, ptr %2, align 8
  store i32 1, ptr %9, align 4
  br label %138

138:                                              ; preds = %136, %133
  call void @llvm.lifetime.end.p0(i64 8, ptr %4) #14
  %139 = load ptr, ptr %2, align 8
  ret ptr %139
}