; Function Attrs: mustprogress uwtable
define noundef ptr @_ZN6icu_7713LocDataParser10nextStringEv(ptr noundef nonnull align 8 captures(none) dereferenceable(48) %0) local_unnamed_addr #3 align 2 {
  %2 = getelementptr inbounds nuw i8, ptr %0, i64 16
  %3 = getelementptr inbounds nuw i8, ptr %0, i64 8
  %4 = load ptr, ptr %2, align 8, !tbaa !29
  %5 = load ptr, ptr %3, align 8, !tbaa !28
  %6 = icmp ult ptr %4, %5
  br i1 %6, label %.lr.ph.i, label %_ZN6icu_7713LocDataParser14skipWhitespaceEv.exit

.lr.ph.i:                                         ; preds = %1
  %7 = getelementptr inbounds nuw i8, ptr %0, i64 24
  %.pre.i = load i16, ptr %7, align 8, !tbaa !30
  br label %8

8:                                                ; preds = %17, %.lr.ph.i
  %9 = phi i16 [ %.pre.i, %.lr.ph.i ], [ -1, %17 ]
  %10 = phi ptr [ %4, %.lr.ph.i ], [ %18, %17 ]
  %.not.i = icmp eq i16 %9, -1
  br i1 %.not.i, label %11, label %13

11:                                               ; preds = %8
  %12 = load i16, ptr %10, align 2, !tbaa !26
  br label %13

13:                                               ; preds = %11, %8
  %14 = phi i16 [ %12, %11 ], [ %9, %8 ]
  %15 = zext i16 %14 to i32
  %16 = tail call noundef signext i8 @_ZN6icu_7712PatternProps12isWhiteSpaceEi(i32 noundef %15)
  %.not1.i = icmp eq i8 %16, 0
  %.pre.pre = load ptr, ptr %2, align 8, !tbaa !29
  %.pre40.pre = load ptr, ptr %3, align 8, !tbaa !28
  br i1 %.not1.i, label %_ZN6icu_7713LocDataParser14skipWhitespaceEv.exit, label %17

17:                                               ; preds = %13
  %18 = getelementptr inbounds nuw i8, ptr %.pre.pre, i64 2
  store ptr %18, ptr %2, align 8, !tbaa !29
  store i16 -1, ptr %7, align 8, !tbaa !30
  %19 = icmp ult ptr %18, %.pre40.pre
  br i1 %19, label %8, label %_ZN6icu_7713LocDataParser14skipWhitespaceEv.exit, !llvm.loop !31

_ZN6icu_7713LocDataParser14skipWhitespaceEv.exit: ; preds = %13, %17, %1
  %20 = phi ptr [ %5, %1 ], [ %.pre40.pre, %17 ], [ %.pre40.pre, %13 ]
  %21 = phi ptr [ %4, %1 ], [ %.pre.pre, %13 ], [ %18, %17 ]
  %22 = icmp ult ptr %21, %20
  br i1 %22, label %23, label %.thread

23:                                               ; preds = %_ZN6icu_7713LocDataParser14skipWhitespaceEv.exit
  %24 = load i16, ptr %21, align 2, !tbaa !26
  switch i16 %24, label %29 [
    i16 39, label %25
    i16 34, label %25
  ]

25:                                               ; preds = %23, %23
  %26 = icmp eq i16 %24, 34
  %27 = getelementptr inbounds nuw i8, ptr %21, i64 2
  store ptr %27, ptr %2, align 8, !tbaa !29
  %28 = getelementptr inbounds nuw i8, ptr %0, i64 24
  store i16 -1, ptr %28, align 8, !tbaa !30
  %_ZN6icu_77L15DQUOTE_STOPLISTE._ZN6icu_77L15SQUOTE_STOPLISTE = select i1 %26, ptr @_ZN6icu_77L15DQUOTE_STOPLISTE, ptr @_ZN6icu_77L15SQUOTE_STOPLISTE
  br label %29

29:                                               ; preds = %23, %25
  %.promoted = phi ptr [ %27, %25 ], [ %21, %23 ]
  %.028 = phi ptr [ %_ZN6icu_77L15DQUOTE_STOPLISTE._ZN6icu_77L15SQUOTE_STOPLISTE, %25 ], [ @_ZN6icu_77L16NOQUOTE_STOPLISTE, %23 ]
  %30 = icmp ult ptr %.promoted, %20
  br i1 %30, label %.lr.ph, label %.critedge

.lr.ph:                                           ; preds = %29
  %31 = load i16, ptr %.028, align 2, !tbaa !26
  %32 = icmp eq i16 %31, 32
  br i1 %32, label %.lr.ph.split.us, label %.lr.ph.split

.lr.ph.split.us:                                  ; preds = %.lr.ph, %39
  %33 = phi ptr [ %40, %39 ], [ %.promoted, %.lr.ph ]
  %34 = load i16, ptr %33, align 2, !tbaa !26
  %35 = zext i16 %34 to i32
  %36 = tail call noundef signext i8 @_ZN6icu_7712PatternProps12isWhiteSpaceEi(i32 noundef %35)
  %.not.i33.us = icmp eq i8 %36, 0
  br i1 %.not.i33.us, label %.preheader, label %.lr.ph.split.us..critedge.loopexit_crit_edge

.lr.ph.split.us..critedge.loopexit_crit_edge:     ; preds = %.lr.ph.split.us
  %.pre41.pre = load ptr, ptr %2, align 8, !tbaa !29
  br label %.critedge.loopexit

.preheader:                                       ; preds = %.lr.ph.split.us, %.preheader
  %.0.i.us = phi ptr [ %38, %.preheader ], [ %.028, %.lr.ph.split.us ]
  %37 = load i16, ptr %.0.i.us, align 2, !tbaa !26
  %.not10.i.us = icmp eq i16 %37, 0
  %.not11.i.us = icmp eq i16 %37, %34
  %or.cond.i.us = or i1 %.not10.i.us, %.not11.i.us
  %38 = getelementptr inbounds nuw i8, ptr %.0.i.us, i64 2
  br i1 %or.cond.i.us, label %_ZNK6icu_7713LocDataParser6inListEDsPKDs.exit.us, label %.preheader, !llvm.loop !53

_ZNK6icu_7713LocDataParser6inListEDsPKDs.exit.us: ; preds = %.preheader
  %.pre41.pre44 = load ptr, ptr %2, align 8, !tbaa !29
  br i1 %.not11.i.us, label %.critedge.loopexit, label %39

39:                                               ; preds = %_ZNK6icu_7713LocDataParser6inListEDsPKDs.exit.us
  %40 = getelementptr inbounds nuw i8, ptr %.pre41.pre44, i64 2
  store ptr %40, ptr %2, align 8, !tbaa !29
  %41 = load ptr, ptr %3, align 8, !tbaa !28
  %42 = icmp ult ptr %40, %41
  br i1 %42, label %.lr.ph.split.us, label %.critedge.loopexit, !llvm.loop !54

.lr.ph.split:                                     ; preds = %.lr.ph, %48
  %43 = phi ptr [ %49, %48 ], [ %.promoted, %.lr.ph ]
  %44 = load i16, ptr %43, align 2, !tbaa !26
  br label %45

45:                                               ; preds = %45, %.lr.ph.split
  %.0.i = phi ptr [ %.028, %.lr.ph.split ], [ %47, %45 ]
  %46 = load i16, ptr %.0.i, align 2, !tbaa !26
  %.not10.i = icmp eq i16 %46, 0
  %.not11.i = icmp eq i16 %46, %44
  %or.cond.i = or i1 %.not10.i, %.not11.i
  %47 = getelementptr inbounds nuw i8, ptr %.0.i, i64 2
  br i1 %or.cond.i, label %_ZNK6icu_7713LocDataParser6inListEDsPKDs.exit, label %45, !llvm.loop !53

_ZNK6icu_7713LocDataParser6inListEDsPKDs.exit:    ; preds = %45
  br i1 %.not11.i, label %.critedge, label %48

48:                                               ; preds = %_ZNK6icu_7713LocDataParser6inListEDsPKDs.exit
  %49 = getelementptr inbounds nuw i8, ptr %43, i64 2
  store ptr %49, ptr %2, align 8, !tbaa !29
  %50 = icmp ult ptr %49, %20
  br i1 %50, label %.lr.ph.split, label %.critedge, !llvm.loop !54

.critedge.loopexit:                               ; preds = %39, %_ZNK6icu_7713LocDataParser6inListEDsPKDs.exit.us, %.lr.ph.split.us..critedge.loopexit_crit_edge
  %.pre41 = phi ptr [ %.pre41.pre, %.lr.ph.split.us..critedge.loopexit_crit_edge ], [ %40, %39 ], [ %.pre41.pre44, %_ZNK6icu_7713LocDataParser6inListEDsPKDs.exit.us ]
  %.pre42 = load ptr, ptr %3, align 8, !tbaa !28
  br label %.critedge

.critedge:                                        ; preds = %_ZNK6icu_7713LocDataParser6inListEDsPKDs.exit, %48, %.critedge.loopexit, %29
  %51 = phi ptr [ %.pre42, %.critedge.loopexit ], [ %20, %29 ], [ %20, %48 ], [ %20, %_ZNK6icu_7713LocDataParser6inListEDsPKDs.exit ]
  %52 = phi ptr [ %.pre41, %.critedge.loopexit ], [ %.promoted, %29 ], [ %43, %_ZNK6icu_7713LocDataParser6inListEDsPKDs.exit ], [ %49, %48 ]
  %53 = icmp eq ptr %52, %51
  br i1 %53, label %54, label %55

54:                                               ; preds = %.critedge
  tail call void @_ZN6icu_7713LocDataParser10parseErrorEPKc(ptr noundef nonnull align 8 dereferenceable(48) %0, ptr poison)
  br label %.thread

55:                                               ; preds = %.critedge
  %56 = load i16, ptr %52, align 2, !tbaa !26
  %57 = icmp ugt ptr %52, %.promoted
  br i1 %57, label %58, label %60

58:                                               ; preds = %55
  %59 = getelementptr inbounds nuw i8, ptr %0, i64 24
  store i16 %56, ptr %59, align 8, !tbaa !30
  store i16 0, ptr %52, align 2, !tbaa !26
  br label %60

60:                                               ; preds = %58, %55
  %.227 = phi ptr [ %.promoted, %58 ], [ null, %55 ]
  switch i16 %24, label %69 [
    i16 39, label %61
    i16 34, label %61
  ]

61:                                               ; preds = %60, %60
  %.not32 = icmp eq i16 %56, %24
  br i1 %.not32, label %63, label %62

62:                                               ; preds = %61
  tail call void @_ZN6icu_7713LocDataParser10parseErrorEPKc(ptr noundef nonnull align 8 dereferenceable(48) %0, ptr poison)
  br label %.thread

63:                                               ; preds = %61
  %64 = icmp eq ptr %52, %.promoted
  br i1 %64, label %65, label %66

65:                                               ; preds = %63
  tail call void @_ZN6icu_7713LocDataParser10parseErrorEPKc(ptr noundef nonnull align 8 dereferenceable(48) %0, ptr poison)
  br label %.thread

66:                                               ; preds = %63
  %67 = getelementptr inbounds nuw i8, ptr %52, i64 2
  store ptr %67, ptr %2, align 8, !tbaa !29
  %68 = getelementptr inbounds nuw i8, ptr %0, i64 24
  store i16 -1, ptr %68, align 8, !tbaa !30
  br label %.thread

69:                                               ; preds = %60
  switch i16 %56, label %.thread [
    i16 60, label %70
    i16 39, label %70
    i16 34, label %70
  ]

70:                                               ; preds = %69, %69, %69
  tail call void @_ZN6icu_7713LocDataParser10parseErrorEPKc(ptr noundef nonnull align 8 dereferenceable(48) %0, ptr poison)
  br label %.thread

.thread:                                          ; preds = %70, %65, %62, %54, %66, %69, %_ZN6icu_7713LocDataParser14skipWhitespaceEv.exit
  %.2 = phi ptr [ null, %_ZN6icu_7713LocDataParser14skipWhitespaceEv.exit ], [ %.227, %66 ], [ %.227, %69 ], [ null, %54 ], [ null, %62 ], [ null, %65 ], [ null, %70 ]
  ret ptr %.2
}